; ModuleID = '11/556.c'
source_filename = "11/556.c"
target datalayout = "e-m:e-p270:32:32-p271:32:32-p272:64:64-i64:64-f80:128-n8:16:32:64-S128"
target triple = "x86_64-pc-linux-gnu"

@.str = private unnamed_addr constant [7 x i8] c"%d%d%d\00", align 1
@.str.1 = private unnamed_addr constant [3 x i8] c"%d\00", align 1

; Function Attrs: noinline nounwind uwtable
define dso_local void @main() #0 {
  %1 = alloca i32, align 4
  %2 = alloca i32, align 4
  %3 = alloca i32, align 4
  %4 = alloca i32, align 4
  %5 = alloca i32, align 4
  %6 = alloca i32, align 4
  store i32 0, i32* %6, align 4
  %7 = call i32 (i8*, ...) @__isoc99_scanf(i8* getelementptr inbounds ([7 x i8], [7 x i8]* @.str, i64 0, i64 0), i32* %1, i32* %2, i32* %3)
  %8 = load i32, i32* %1, align 4
  %9 = srem i32 %8, 4
  %10 = icmp ne i32 %9, 0
  br i1 %10, label %11, label %12

11:                                               ; preds = %0
  store i32 28, i32* %4, align 4
  br label %25

12:                                               ; preds = %0
  %13 = load i32, i32* %1, align 4
  %14 = srem i32 %13, 100
  %15 = icmp ne i32 %14, 0
  br i1 %15, label %16, label %17

16:                                               ; preds = %12
  store i32 29, i32* %4, align 4
  br label %24

17:                                               ; preds = %12
  %18 = load i32, i32* %1, align 4
  %19 = srem i32 %18, 400
  %20 = icmp eq i32 %19, 0
  br i1 %20, label %21, label %22

21:                                               ; preds = %17
  store i32 29, i32* %4, align 4
  br label %23

22:                                               ; preds = %17
  store i32 28, i32* %4, align 4
  br label %23

23:                                               ; preds = %22, %21
  br label %24

24:                                               ; preds = %23, %16
  br label %25

25:                                               ; preds = %24, %11
  store i32 1, i32* %5, align 4
  br label %26

26:                                               ; preds = %57, %25
  %27 = load i32, i32* %5, align 4
  %28 = load i32, i32* %2, align 4
  %29 = icmp slt i32 %27, %28
  br i1 %29, label %30, label %60

30:                                               ; preds = %26
  %31 = load i32, i32* %5, align 4
  %32 = icmp eq i32 %31, 2
  br i1 %32, label %33, label %37

33:                                               ; preds = %30
  %34 = load i32, i32* %6, align 4
  %35 = load i32, i32* %4, align 4
  %36 = add nsw i32 %34, %35
  store i32 %36, i32* %6, align 4
  br label %56

37:                                               ; preds = %30
  %38 = load i32, i32* %5, align 4
  %39 = icmp eq i32 %38, 4
  br i1 %39, label %49, label %40

40:                                               ; preds = %37
  %41 = load i32, i32* %5, align 4
  %42 = icmp eq i32 %41, 6
  br i1 %42, label %49, label %43

43:                                               ; preds = %40
  %44 = load i32, i32* %5, align 4
  %45 = icmp eq i32 %44, 9
  br i1 %45, label %49, label %46

46:                                               ; preds = %43
  %47 = load i32, i32* %5, align 4
  %48 = icmp eq i32 %47, 11
  br i1 %48, label %49, label %52

49:                                               ; preds = %46, %43, %40, %37
  %50 = load i32, i32* %6, align 4
  %51 = add nsw i32 %50, 30
  store i32 %51, i32* %6, align 4
  br label %55

52:                                               ; preds = %46
  %53 = load i32, i32* %6, align 4
  %54 = add nsw i32 %53, 31
  store i32 %54, i32* %6, align 4
  br label %55

55:                                               ; preds = %52, %49
  br label %56

56:                                               ; preds = %55, %33
  br label %57

57:                                               ; preds = %56
  %58 = load i32, i32* %5, align 4
  %59 = add nsw i32 %58, 1
  store i32 %59, i32* %5, align 4
  br label %26

60:                                               ; preds = %26
  %61 = load i32, i32* %6, align 4
  %62 = load i32, i32* %3, align 4
  %63 = add nsw i32 %61, %62
  store i32 %63, i32* %6, align 4
  %64 = load i32, i32* %6, align 4
  %65 = call i32 (i8*, ...) @printf(i8* getelementptr inbounds ([3 x i8], [3 x i8]* @.str.1, i64 0, i64 0), i32 %64)
  ret void
}

declare dso_local i32 @__isoc99_scanf(i8*, ...) #1

declare dso_local i32 @printf(i8*, ...) #1


!llvm.module.flags = !{!0}
!llvm.ident = !{!1}

!0 = !{i32 1, !"wchar_size", i32 4}
!1 = !{!"clang version 10.0.0-4ubuntu1 "}
